ccopy_reg
_reconstructor
p0
(csklearn.linear_model.base
LinearRegression
p1
c__builtin__
object
p2
Ntp3
Rp4
(dp5
S'normalize'
p6
I00
sS'n_jobs'
p7
I-1
sS'rank_'
p8
I4
sS'fit_intercept'
p9
I01
sS'_residues'
p10
cnumpy.core.multiarray
scalar
p11
(cnumpy
dtype
p12
(S'f8'
p13
I0
I1
tp14
Rp15
(I3
S'<'
p16
NNNI-1
I-1
I0
tp17
bS'f\x98l6q\xf0BA'
p18
tp19
Rp20
sS'coef_'
p21
cnumpy.core.multiarray
_reconstruct
p22
(cnumpy
ndarray
p23
(I0
tp24
S'b'
p25
tp26
Rp27
(I1
(I4
tp28
g15
I00
S'\x97\xa8\xb8\x1b\x85fe@\x00\xc1\xe5\xf8g\x0f\xda\xbf\x80-\xe4\xb8\xcb\x85\xc9?\x10g"\xc3\x14\xd6\x0f\xc0'
p29
tp30
bsS'copy_X'
p31
I01
sS'intercept_'
p32
g11
(g15
S'y\xc8\xc9\xdf\x06:u@'
p33
tp34
Rp35
sS'singular_'
p36
g22
(g23
(I0
tp37
g25
tp38
Rp39
(I1
(I4
tp40
g15
I00
S'\xd5\x87\x01\x91\xe9\xdcP@\xdb\x8fdkInH@\x1c17\x83M\x1fD@t\xb9\xab\xe0\xe9\x7f<@'
p41
tp42
bsb.